; Function Attrs: mustprogress uwtable
define dso_local void @_ZNK4Json5Value3getERKNSt7__cxx1112basic_stringIcSt11char_traitsIcESaIcEEERKS0_(ptr dead_on_unwind noalias nocapture writable sret(%"class.Json::Value") align 8 %0, ptr nocapture noundef nonnull readonly align 8 dereferenceable(32) %1, ptr noundef nonnull align 8 dereferenceable(32) %2, ptr nocapture noundef nonnull readonly align 8 dereferenceable(32) %3) local_unnamed_addr #2 align 2 {
  %5 = tail call noundef ptr @_ZNKSt7__cxx1112basic_stringIcSt11char_traitsIcESaIcEE4dataEv(ptr noundef nonnull align 8 dereferenceable(32) %2) #39
  %6 = tail call noundef ptr @_ZNKSt7__cxx1112basic_stringIcSt11char_traitsIcESaIcEE4dataEv(ptr noundef nonnull align 8 dereferenceable(32) %2) #39
  %7 = tail call noundef i64 @_ZNKSt7__cxx1112basic_stringIcSt11char_traitsIcESaIcEE6lengthEv(ptr noundef nonnull align 8 dereferenceable(32) %2) #39
  %8 = getelementptr inbounds i8, ptr %6, i64 %7
  %9 = tail call noundef ptr @_ZNK4Json5Value4findEPKcS2_(ptr noundef nonnull align 8 dereferenceable(32) %1, ptr noundef %5, ptr noundef %8), !noalias !219
  %.not.i = icmp eq ptr %9, null
  %10 = select i1 %.not.i, ptr %3, ptr %9
  tail call void @_ZN4Json5ValueC2ERKS0_(ptr noundef nonnull align 8 dereferenceable(32) %0, ptr noundef nonnull align 8 dereferenceable(32) %10)
  ret void
}